target datalayout = "e-m:e-p270:32:32-p271:32:32-p272:64:64-i64:64-i128:128-f80:128-n8:16:32:64-S128"
target triple = "x86_64-pc-linux-gnu"

; Function Attrs: nounwind uwtable
define dso_local double @zend_bin_strtod(ptr noundef %0, ptr noundef %1) #0 {
  %3 = alloca ptr, align 8
  %4 = alloca ptr, align 8
  %5 = alloca ptr, align 8
  %6 = alloca i8, align 1
  %7 = alloca double, align 8
  %8 = alloca i32, align 4
  store ptr %0, ptr %3, align 8, !tbaa !48
  store ptr %1, ptr %4, align 8, !tbaa !49
  call void @llvm.lifetime.start.p0(i64 8, ptr %5) #7
  %9 = load ptr, ptr %3, align 8, !tbaa !48
  store ptr %9, ptr %5, align 8, !tbaa !48
  call void @llvm.lifetime.start.p0(i64 1, ptr %6) #7
  call void @llvm.lifetime.start.p0(i64 8, ptr %7) #7
  store double 0.000000e+00, ptr %7, align 8, !tbaa !58
  call void @llvm.lifetime.start.p0(i64 4, ptr %8) #7
  store i32 0, ptr %8, align 4, !tbaa !4
  %10 = load ptr, ptr %5, align 8, !tbaa !48
  %11 = load i8, ptr %10, align 1, !tbaa !54
  %12 = sext i8 %11 to i32
  %13 = icmp eq i32 48, %12
  br i1 %13, label %14, label %29

14:                                               ; preds = %2
  %15 = load ptr, ptr %5, align 8, !tbaa !48
  %16 = getelementptr inbounds i8, ptr %15, i64 1
  %17 = load i8, ptr %16, align 1, !tbaa !54
  %18 = sext i8 %17 to i32
  %19 = icmp eq i32 98, %18
  br i1 %19, label %26, label %20

20:                                               ; preds = %14
  %21 = load ptr, ptr %5, align 8, !tbaa !48
  %22 = getelementptr inbounds i8, ptr %21, i64 1
  %23 = load i8, ptr %22, align 1, !tbaa !54
  %24 = sext i8 %23 to i32
  %25 = icmp eq i32 66, %24
  br i1 %25, label %26, label %29

26:                                               ; preds = %20, %14
  %27 = load ptr, ptr %5, align 8, !tbaa !48
  %28 = getelementptr inbounds i8, ptr %27, i64 2
  store ptr %28, ptr %5, align 8, !tbaa !48
  br label %29

29:                                               ; preds = %26, %20, %2
  br label %30

30:                                               ; preds = %52, %29
  %31 = load ptr, ptr %5, align 8, !tbaa !48
  %32 = getelementptr inbounds nuw i8, ptr %31, i32 1
  store ptr %32, ptr %5, align 8, !tbaa !48
  %33 = load i8, ptr %31, align 1, !tbaa !54
  store i8 %33, ptr %6, align 1, !tbaa !54
  %34 = icmp ne i8 %33, 0
  br i1 %34, label %35, label %53

35:                                               ; preds = %30
  %36 = load i8, ptr %6, align 1, !tbaa !54
  %37 = sext i8 %36 to i32
  %38 = icmp eq i32 48, %37
  br i1 %38, label %43, label %39

39:                                               ; preds = %35
  %40 = load i8, ptr %6, align 1, !tbaa !54
  %41 = sext i8 %40 to i32
  %42 = icmp eq i32 49, %41
  br i1 %42, label %43, label %51

43:                                               ; preds = %39, %35
  %44 = load double, ptr %7, align 8, !tbaa !58
  %45 = fmul double %44, 2.000000e+00
  %46 = load i8, ptr %6, align 1, !tbaa !54
  %47 = sext i8 %46 to i32
  %48 = sitofp i32 %47 to double
  %49 = fadd double %45, %48
  %50 = fsub double %49, 4.800000e+01
  store double %50, ptr %7, align 8, !tbaa !58
  br label %52

51:                                               ; preds = %39
  br label %53

52:                                               ; preds = %43
  store i32 1, ptr %8, align 4, !tbaa !4
  br label %30

53:                                               ; preds = %51, %30
  %54 = load ptr, ptr %4, align 8, !tbaa !49
  %55 = icmp ne ptr null, %54
  br i1 %55, label %56, label %67

56:                                               ; preds = %53
  %57 = load i32, ptr %8, align 4, !tbaa !4
  %58 = icmp ne i32 %57, 0
  br i1 %58, label %59, label %62

59:                                               ; preds = %56
  %60 = load ptr, ptr %5, align 8, !tbaa !48
  %61 = getelementptr inbounds i8, ptr %60, i64 -1
  br label %64

62:                                               ; preds = %56
  %63 = load ptr, ptr %3, align 8, !tbaa !48
  br label %64

64:                                               ; preds = %62, %59
  %65 = phi ptr [ %61, %59 ], [ %63, %62 ]
  %66 = load ptr, ptr %4, align 8, !tbaa !49
  store ptr %65, ptr %66, align 8, !tbaa !48
  br label %67

67:                                               ; preds = %64, %53
  %68 = load double, ptr %7, align 8, !tbaa !58
  call void @llvm.lifetime.end.p0(i64 4, ptr %8) #7
  call void @llvm.lifetime.end.p0(i64 8, ptr %7) #7
  call void @llvm.lifetime.end.p0(i64 1, ptr %6) #7
  call void @llvm.lifetime.end.p0(i64 8, ptr %5) #7
  ret double %68
}