; Function Attrs: nofree norecurse nosync nounwind memory(argmem: readwrite) uwtable
define dso_local double @zend_bin_strtod(ptr noundef %0, ptr noundef writeonly captures(address_is_null) %1) local_unnamed_addr #5 {
  %3 = load i8, ptr %0, align 1, !tbaa !45
  %4 = icmp eq i8 %3, 48
  br i1 %4, label %5, label %10

5:                                                ; preds = %2
  %6 = getelementptr inbounds nuw i8, ptr %0, i64 1
  %7 = load i8, ptr %6, align 1, !tbaa !45
  switch i8 %7, label %.lr.ph.preheader [
    i8 98, label %8
    i8 66, label %8
  ]

8:                                                ; preds = %5, %5
  %9 = getelementptr inbounds nuw i8, ptr %0, i64 2
  %.pre = load i8, ptr %9, align 1, !tbaa !45
  br label %10

10:                                               ; preds = %8, %2
  %11 = phi i8 [ %.pre, %8 ], [ %3, %2 ]
  %.018 = phi ptr [ %9, %8 ], [ %0, %2 ]
  %12 = and i8 %11, -2
  %or.cond25 = icmp eq i8 %12, 48
  br i1 %or.cond25, label %.lr.ph.preheader, label %._crit_edge

.lr.ph.preheader:                                 ; preds = %5, %10
  %.ph = phi i8 [ 48, %5 ], [ %11, %10 ]
  %.126.ph = phi ptr [ %0, %5 ], [ %.018, %10 ]
  br label %.lr.ph

.lr.ph:                                           ; preds = %.lr.ph.preheader, %.lr.ph
  %13 = phi i8 [ %19, %.lr.ph ], [ %.ph, %.lr.ph.preheader ]
  %.01727 = phi double [ %18, %.lr.ph ], [ 0.000000e+00, %.lr.ph.preheader ]
  %.126 = phi ptr [ %14, %.lr.ph ], [ %.126.ph, %.lr.ph.preheader ]
  %14 = getelementptr inbounds nuw i8, ptr %.126, i64 1
  %15 = fmul double %.01727, 2.000000e+00
  %16 = uitofp nneg i8 %13 to double
  %17 = fadd double %15, %16
  %18 = fadd double %17, -4.800000e+01
  %19 = load i8, ptr %14, align 1, !tbaa !45
  %20 = and i8 %19, -2
  %or.cond = icmp eq i8 %20, 48
  br i1 %or.cond, label %.lr.ph, label %._crit_edge

._crit_edge:                                      ; preds = %.lr.ph, %10
  %.017.lcssa = phi double [ 0.000000e+00, %10 ], [ %18, %.lr.ph ]
  %.not23.lcssa = phi ptr [ %0, %10 ], [ %14, %.lr.ph ]
  %.not22 = icmp eq ptr %1, null
  br i1 %.not22, label %22, label %21

21:                                               ; preds = %._crit_edge
  store ptr %.not23.lcssa, ptr %1, align 8, !tbaa !53
  br label %22

22:                                               ; preds = %21, %._crit_edge
  ret double %.017.lcssa
}